target datalayout = "e-m:e-p270:32:32-p271:32:32-p272:64:64-i64:64-i128:128-f80:128-n8:16:32:64-S128"
target triple = "x86_64-pc-linux-gnu"

%struct.RBasic = type { i64, i64 }
%struct.RString = type { %struct.RBasic, i64, %union.anon.14 }
%union.anon.14 = type { %struct.anon.15 }
%struct.anon.15 = type { ptr, %union.anon.16 }
%union.anon.16 = type { i64 }
%struct.rb_parser_ary = type { i32, ptr, i64, i64 }

@default_indent = internal constant [5 x i8] c"|   \00", align 1
@.str.6 = private unnamed_addr constant [1 x i8] zeroinitializer, align 1
@.str.11 = private unnamed_addr constant [12 x i8] c"statement #\00", align 1
@.str.12 = private unnamed_addr constant [5 x i8] c"    \00", align 1
@.str.21 = private unnamed_addr constant [10 x i8] c"+- %.*s: \00", align 1
@.str.24 = private unnamed_addr constant [2 x i8] c"\0A\00", align 1
@.str.260 = private unnamed_addr constant [4 x i8] c"%ld\00", align 1
@.str.488 = private unnamed_addr constant [39 x i8] c"unexpected rb_parser_ary_data_type: %d\00", align 1
@.str.489 = private unnamed_addr constant [16 x i8] c"length (length)\00", align 1
@.str.490 = private unnamed_addr constant [21 x i8] c"+- element (%s%ld):\0A\00", align 1

; Function Attrs: inlinehint nounwind sspstrong uwtable
define internal i64 @rbimpl_strlen(ptr noundef nonnull %0) #5 {
  %2 = alloca ptr, align 8
  store ptr %0, ptr %2, align 8, !tbaa !18
  %3 = load ptr, ptr %2, align 8, !tbaa !18
  %4 = call i64 @strlen(ptr noundef %3) #14
  ret i64 %4
}

; Function Attrs: inlinehint nounwind sspstrong willreturn memory(read) uwtable
define internal i64 @RSTRING_LEN(i64 noundef %0) #3 {
  %2 = alloca i64, align 8
  store i64 %0, ptr %2, align 8, !tbaa !7
  %3 = load i64, ptr %2, align 8, !tbaa !7
  %4 = inttoptr i64 %3 to ptr
  %5 = getelementptr inbounds nuw %struct.RString, ptr %4, i32 0, i32 1
  %6 = load i64, ptr %5, align 8, !tbaa !747
  ret i64 %6
}

; Function Attrs: inlinehint nounwind sspstrong uwtable
define internal i64 @rbimpl_str_cat_cstr(i64 noundef %0, ptr noundef nonnull %1) #5 {
  %3 = alloca i64, align 8
  %4 = alloca ptr, align 8
  %5 = alloca i64, align 8
  store i64 %0, ptr %3, align 8, !tbaa !7
  store ptr %1, ptr %4, align 8, !tbaa !18
  call void @llvm.lifetime.start.p0(i64 8, ptr %5) #13
  %6 = load ptr, ptr %4, align 8, !tbaa !18
  %7 = call i64 @rbimpl_strlen(ptr noundef %6)
  store i64 %7, ptr %5, align 8, !tbaa !7
  %8 = load i64, ptr %3, align 8, !tbaa !7
  %9 = load ptr, ptr %4, align 8, !tbaa !18
  %10 = load i64, ptr %5, align 8, !tbaa !7
  %11 = call i64 @rb_str_cat(i64 noundef %8, ptr noundef %9, i64 noundef %10)
  call void @llvm.lifetime.end.p0(i64 8, ptr %5) #13
  ret i64 %11
}

; Function Attrs: nounwind sspstrong uwtable
define internal void @add_indent(i64 noundef %0, i64 noundef %1) #0 {
  %3 = alloca i64, align 8
  %4 = alloca i64, align 8
  store i64 %0, ptr %3, align 8, !tbaa !7
  store i64 %1, ptr %4, align 8, !tbaa !7
  %5 = load i64, ptr %3, align 8, !tbaa !7
  %6 = load i64, ptr %4, align 8, !tbaa !7
  %7 = call i64 @rb_str_concat(i64 noundef %5, i64 noundef %6)
  ret void
}

; Function Attrs: nounwind sspstrong uwtable
define internal void @dump_parser_array(i64 noundef %0, i64 noundef %1, i32 noundef %2, ptr noundef %3) #0 {
  %5 = alloca i64, align 8
  %6 = alloca i64, align 8
  %7 = alloca i32, align 4
  %8 = alloca ptr, align 8
  %9 = alloca i32, align 4
  %10 = alloca ptr, align 8
  %11 = alloca i64, align 8
  store i64 %0, ptr %5, align 8, !tbaa !7
  store i64 %1, ptr %6, align 8, !tbaa !7
  store i32 %2, ptr %7, align 4, !tbaa !16
  store ptr %3, ptr %8, align 8, !tbaa !754
  call void @llvm.lifetime.start.p0(i64 4, ptr %9) #13
  call void @llvm.lifetime.start.p0(i64 8, ptr %10) #13
  store ptr @default_indent, ptr %10, align 8, !tbaa !18
  %12 = load ptr, ptr %8, align 8, !tbaa !754
  %13 = getelementptr inbounds nuw %struct.rb_parser_ary, ptr %12, i32 0, i32 0
  %14 = load i32, ptr %13, align 8, !tbaa !755
  %15 = icmp ne i32 %14, 3
  br i1 %15, label %16, label %20

16:                                               ; preds = %4
  %17 = load ptr, ptr %8, align 8, !tbaa !754
  %18 = getelementptr inbounds nuw %struct.rb_parser_ary, ptr %17, i32 0, i32 0
  %19 = load i32, ptr %18, align 8, !tbaa !755
  call void (ptr, ...) @rb_bug(ptr noundef @.str.488, i32 noundef %19) #15
  unreachable

20:                                               ; preds = %4
  %21 = load i64, ptr %5, align 8, !tbaa !7
  %22 = load i64, ptr %6, align 8, !tbaa !7
  call void @add_indent(i64 noundef %21, i64 noundef %22)
  %23 = load i64, ptr %5, align 8, !tbaa !7
  %24 = load i32, ptr %7, align 4, !tbaa !16
  %25 = icmp ne i32 %24, 0
  %26 = select i1 %25, i64 15, i64 6
  %27 = trunc i64 %26 to i32
  %28 = call i64 (i64, ptr, ...) @rb_str_catf(i64 noundef %23, ptr noundef @.str.21, i32 noundef %27, ptr noundef @.str.489)
  store i32 1, ptr %9, align 4, !tbaa !16
  br label %29

29:                                               ; preds = %38, %20
  %30 = load i32, ptr %9, align 4, !tbaa !16
  %31 = icmp ne i32 %30, 0
  br i1 %31, label %32, label %41

32:                                               ; preds = %29
  %33 = load i64, ptr %5, align 8, !tbaa !7
  %34 = load ptr, ptr %8, align 8, !tbaa !754
  %35 = getelementptr inbounds nuw %struct.rb_parser_ary, ptr %34, i32 0, i32 2
  %36 = load i64, ptr %35, align 8, !tbaa !757
  %37 = call i64 (i64, ptr, ...) @rb_str_catf(i64 noundef %33, ptr noundef @.str.260, i64 noundef %36)
  br label %38

38:                                               ; preds = %32
  %39 = load i64, ptr %5, align 8, !tbaa !7
  %40 = call i64 @rbimpl_str_cat_cstr(i64 noundef %39, ptr noundef @.str.24)
  store i32 0, ptr %9, align 4, !tbaa !16
  br label %29, !llvm.loop !758

41:                                               ; preds = %29
  call void @llvm.lifetime.start.p0(i64 8, ptr %11) #13
  store i64 0, ptr %11, align 8, !tbaa !7
  br label %42

42:                                               ; preds = %83, %41
  %43 = load i64, ptr %11, align 8, !tbaa !7
  %44 = load ptr, ptr %8, align 8, !tbaa !754
  %45 = getelementptr inbounds nuw %struct.rb_parser_ary, ptr %44, i32 0, i32 2
  %46 = load i64, ptr %45, align 8, !tbaa !757
  %47 = icmp slt i64 %43, %46
  br i1 %47, label %49, label %48

48:                                               ; preds = %42
  call void @llvm.lifetime.end.p0(i64 8, ptr %11) #13
  br label %86

49:                                               ; preds = %42
  %50 = load i64, ptr %11, align 8, !tbaa !7
  %51 = load ptr, ptr %8, align 8, !tbaa !754
  %52 = getelementptr inbounds nuw %struct.rb_parser_ary, ptr %51, i32 0, i32 2
  %53 = load i64, ptr %52, align 8, !tbaa !757
  %54 = sub i64 %53, 1
  %55 = icmp eq i64 %50, %54
  br i1 %55, label %56, label %57

56:                                               ; preds = %49
  store ptr @.str.12, ptr %10, align 8, !tbaa !18
  br label %57

57:                                               ; preds = %56, %49
  %58 = load i64, ptr %5, align 8, !tbaa !7
  %59 = load i64, ptr %6, align 8, !tbaa !7
  call void @add_indent(i64 noundef %58, i64 noundef %59)
  %60 = load i64, ptr %5, align 8, !tbaa !7
  %61 = load i32, ptr %7, align 4, !tbaa !16
  %62 = icmp ne i32 %61, 0
  %63 = select i1 %62, ptr @.str.11, ptr @.str.6
  %64 = load i64, ptr %11, align 8, !tbaa !7
  %65 = call i64 (i64, ptr, ...) @rb_str_catf(i64 noundef %60, ptr noundef @.str.490, ptr noundef %63, i64 noundef %64)
  %66 = load i64, ptr %6, align 8, !tbaa !7
  %67 = load ptr, ptr %10, align 8, !tbaa !18
  %68 = call i64 @rb_str_cat_cstr(i64 noundef %66, ptr noundef %67)
  %69 = load i64, ptr %5, align 8, !tbaa !7
  %70 = load i64, ptr %6, align 8, !tbaa !7
  %71 = load i32, ptr %7, align 4, !tbaa !16
  %72 = load ptr, ptr %8, align 8, !tbaa !754
  %73 = getelementptr inbounds nuw %struct.rb_parser_ary, ptr %72, i32 0, i32 1
  %74 = load ptr, ptr %73, align 8, !tbaa !759
  %75 = load i64, ptr %11, align 8, !tbaa !7
  %76 = getelementptr ptr, ptr %74, i64 %75
  %77 = load ptr, ptr %76, align 8, !tbaa !760
  call void @dump_node(i64 noundef %69, i64 noundef %70, i32 noundef %71, ptr noundef %77)
  %78 = load i64, ptr %6, align 8, !tbaa !7
  %79 = load i64, ptr %6, align 8, !tbaa !7
  %80 = call i64 @RSTRING_LEN(i64 noundef %79) #14
  %81 = sub i64 %80, 4
  %82 = call i64 @rb_str_resize(i64 noundef %78, i64 noundef %81)
  br label %83

83:                                               ; preds = %57
  %84 = load i64, ptr %11, align 8, !tbaa !7
  %85 = add i64 %84, 1
  store i64 %85, ptr %11, align 8, !tbaa !7
  br label %42, !llvm.loop !761

86:                                               ; preds = %48
  call void @llvm.lifetime.end.p0(i64 8, ptr %10) #13
  call void @llvm.lifetime.end.p0(i64 4, ptr %9) #13
  ret void
}