; Function Attrs: nounwind sspstrong uwtable
define internal fastcc void @dump_parser_array(i64 noundef %0, i64 noundef %1, i32 noundef %2, ptr noundef readonly captures(none) %3) unnamed_addr #0 {
  %5 = load i32, ptr %3, align 8, !tbaa !499
  %.not = icmp eq i32 %5, 3
  br i1 %.not, label %.critedge, label %6

6:                                                ; preds = %4
  tail call void (ptr, ...) @rb_bug(ptr noundef nonnull @.str.488, i32 noundef %5) #6
  unreachable

.critedge:                                        ; preds = %4
  %7 = tail call i64 @rb_str_concat(i64 noundef %0, i64 noundef %1) #5
  %.not32 = icmp eq i32 %2, 0
  %8 = select i1 %.not32, i32 6, i32 15
  %9 = tail call i64 (i64, ptr, ...) @rb_str_catf(i64 noundef %0, ptr noundef nonnull @.str.21, i32 noundef %8, ptr noundef nonnull @.str.489) #5
  %10 = getelementptr inbounds nuw i8, ptr %3, i64 16
  %11 = load i64, ptr %10, align 8, !tbaa !501
  %12 = tail call i64 (i64, ptr, ...) @rb_str_catf(i64 noundef %0, ptr noundef nonnull @.str.260, i64 noundef %11) #5
  %13 = tail call i64 @rb_str_cat(i64 noundef %0, ptr noundef nonnull @.str.24, i64 noundef 1) #5
  %14 = load i64, ptr %10, align 8, !tbaa !501
  %15 = icmp sgt i64 %14, 0
  br i1 %15, label %.lr.ph, label %._crit_edge

.lr.ph:                                           ; preds = %.critedge
  %16 = select i1 %.not32, ptr @.str.6, ptr @.str.11
  %17 = getelementptr inbounds nuw i8, ptr %3, i64 8
  %18 = inttoptr i64 %1 to ptr
  %19 = getelementptr inbounds nuw i8, ptr %18, i64 16
  br label %20

._crit_edge:                                      ; preds = %20, %.critedge
  ret void

20:                                               ; preds = %.lr.ph, %20
  %21 = phi i64 [ %14, %.lr.ph ], [ %34, %20 ]
  %.035 = phi i64 [ 0, %.lr.ph ], [ %33, %20 ]
  %.02834 = phi ptr [ @default_indent, %.lr.ph ], [ %spec.select, %20 ]
  %22 = add nsw i64 %21, -1
  %23 = icmp eq i64 %.035, %22
  %spec.select = select i1 %23, ptr @.str.12, ptr %.02834
  %24 = tail call i64 @rb_str_concat(i64 noundef %0, i64 noundef %1) #5
  %25 = tail call i64 (i64, ptr, ...) @rb_str_catf(i64 noundef %0, ptr noundef nonnull @.str.490, ptr noundef nonnull %16, i64 noundef %.035) #5
  %26 = tail call i64 @rb_str_cat_cstr(i64 noundef %1, ptr noundef %spec.select) #5
  %27 = load ptr, ptr %17, align 8, !tbaa !502
  %28 = getelementptr ptr, ptr %27, i64 %.035
  %29 = load ptr, ptr %28, align 8, !tbaa !503
  tail call fastcc void @dump_node(i64 noundef %0, i64 noundef %1, i32 noundef %2, ptr noundef %29)
  %30 = load i64, ptr %19, align 8, !tbaa !27
  %31 = add i64 %30, -4
  %32 = tail call i64 @rb_str_resize(i64 noundef %1, i64 noundef %31) #5
  %33 = add nuw nsw i64 %.035, 1
  %34 = load i64, ptr %10, align 8, !tbaa !501
  %35 = icmp slt i64 %33, %34
  br i1 %35, label %20, label %._crit_edge, !llvm.loop !504
}